target datalayout = "e-m:e-p270:32:32-p271:32:32-p272:64:64-i64:64-i128:128-f80:128-n8:16:32:64-S128"
target triple = "x86_64-pc-linux-gnu"

%"struct.Yosys::RTLIL::IdString" = type { i32 }
%"class.std::vector" = type { %"struct.std::_Vector_base" }
%"struct.std::_Vector_base" = type { %"struct.std::_Vector_base<int, std::allocator<int>>::_Vector_impl" }
%"struct.std::_Vector_base<int, std::allocator<int>>::_Vector_impl" = type { %"struct.std::_Vector_base<int, std::allocator<int>>::_Vector_impl_data" }
%"struct.std::_Vector_base<int, std::allocator<int>>::_Vector_impl_data" = type { ptr, ptr, ptr }
%"struct.Yosys::RTLIL::SigSpec" = type { i32, i32, %"class.std::vector.150", %"class.std::vector.155" }
%"class.std::vector.150" = type { %"struct.std::_Vector_base.151" }
%"struct.std::_Vector_base.151" = type { %"struct.std::_Vector_base<Yosys::RTLIL::SigChunk, std::allocator<Yosys::RTLIL::SigChunk>>::_Vector_impl" }
%"struct.std::_Vector_base<Yosys::RTLIL::SigChunk, std::allocator<Yosys::RTLIL::SigChunk>>::_Vector_impl" = type { %"struct.std::_Vector_base<Yosys::RTLIL::SigChunk, std::allocator<Yosys::RTLIL::SigChunk>>::_Vector_impl_data" }
%"struct.std::_Vector_base<Yosys::RTLIL::SigChunk, std::allocator<Yosys::RTLIL::SigChunk>>::_Vector_impl_data" = type { ptr, ptr, ptr }
%"class.std::vector.155" = type { %"struct.std::_Vector_base.156" }
%"struct.std::_Vector_base.156" = type { %"struct.std::_Vector_base<Yosys::RTLIL::SigBit, std::allocator<Yosys::RTLIL::SigBit>>::_Vector_impl" }
%"struct.std::_Vector_base<Yosys::RTLIL::SigBit, std::allocator<Yosys::RTLIL::SigBit>>::_Vector_impl" = type { %"struct.std::_Vector_base<Yosys::RTLIL::SigBit, std::allocator<Yosys::RTLIL::SigBit>>::_Vector_impl_data" }
%"struct.std::_Vector_base<Yosys::RTLIL::SigBit, std::allocator<Yosys::RTLIL::SigBit>>::_Vector_impl_data" = type { ptr, ptr, ptr }

@_ZN5Yosys5RTLIL8IdString24global_refcount_storage_E = external global %"class.std::vector", align 8
@_ZN5Yosys5RTLIL2ID1AE = external global %"struct.Yosys::RTLIL::IdString", align 4
@_ZN5Yosys5RTLIL2ID1YE = external global %"struct.Yosys::RTLIL::IdString", align 4
@_ZN5Yosys5RTLIL2ID1BE = external global %"struct.Yosys::RTLIL::IdString", align 4

; Function Attrs: mustprogress nounwind uwtable
define linkonce_odr noundef nonnull align 4 dereferenceable(4) ptr @_ZNSt6vectorIiSaIiEEixEm(ptr noundef nonnull align 8 dereferenceable(24) %0, i64 noundef %1) #5 comdat align 2 {
  %3 = alloca ptr, align 8
  %4 = alloca i64, align 8
  store ptr %0, ptr %3, align 8, !tbaa !71
  store i64 %1, ptr %4, align 8, !tbaa !73
  %5 = load ptr, ptr %3, align 8
  %6 = getelementptr inbounds nuw %"struct.std::_Vector_base", ptr %5, i32 0, i32 0
  %7 = getelementptr inbounds nuw %"struct.std::_Vector_base<int, std::allocator<int>>::_Vector_impl_data", ptr %6, i32 0, i32 0
  %8 = load ptr, ptr %7, align 8, !tbaa !94
  %9 = load i64, ptr %4, align 8, !tbaa !73
  %10 = getelementptr inbounds nuw i32, ptr %8, i64 %9
  ret ptr %10
}

; Function Attrs: inlinehint mustprogress nounwind uwtable
define linkonce_odr noundef i32 @_ZN5Yosys5RTLIL8IdString13get_referenceEi(i32 noundef %0) #8 comdat align 2 {
  %2 = alloca i32, align 4
  store i32 %0, ptr %2, align 4, !tbaa !25
  %3 = load i32, ptr %2, align 4, !tbaa !25
  %4 = icmp ne i32 %3, 0
  br i1 %4, label %5, label %11

5:                                                ; preds = %1
  %6 = load i32, ptr %2, align 4, !tbaa !25
  %7 = sext i32 %6 to i64
  %8 = call noundef nonnull align 4 dereferenceable(4) ptr @_ZNSt6vectorIiSaIiEEixEm(ptr noundef nonnull align 8 dereferenceable(24) @_ZN5Yosys5RTLIL8IdString24global_refcount_storage_E, i64 noundef %7) #3
  %9 = load i32, ptr %8, align 4, !tbaa !25
  %10 = add nsw i32 %9, 1
  store i32 %10, ptr %8, align 4, !tbaa !25
  br label %11

11:                                               ; preds = %5, %1
  %12 = load i32, ptr %2, align 4, !tbaa !25
  ret i32 %12
}

; Function Attrs: inlinehint mustprogress nounwind uwtable
define linkonce_odr noundef i32 @_ZNK5Yosys5RTLIL7SigSpec4sizeEv(ptr noundef nonnull align 8 dereferenceable(56) %0) #8 comdat align 2 {
  %2 = alloca ptr, align 8
  store ptr %0, ptr %2, align 8, !tbaa !202
  %3 = load ptr, ptr %2, align 8
  %4 = getelementptr inbounds nuw %"struct.Yosys::RTLIL::SigSpec", ptr %3, i32 0, i32 0
  %5 = load i32, ptr %4, align 8, !tbaa !204
  ret i32 %5
}

; Function Attrs: inlinehint mustprogress uwtable
define linkonce_odr void @_ZN5Yosys5RTLIL8IdStringC2ERKS1_(ptr noundef nonnull align 4 dereferenceable(4) %0, ptr noundef nonnull align 4 dereferenceable(4) %1) unnamed_addr #7 comdat align 2 {
  %3 = alloca ptr, align 8
  %4 = alloca ptr, align 8
  store ptr %0, ptr %3, align 8, !tbaa !13
  store ptr %1, ptr %4, align 8, !tbaa !13
  %5 = load ptr, ptr %3, align 8
  %6 = getelementptr inbounds nuw %"struct.Yosys::RTLIL::IdString", ptr %5, i32 0, i32 0
  %7 = load ptr, ptr %4, align 8, !tbaa !13
  %8 = getelementptr inbounds nuw %"struct.Yosys::RTLIL::IdString", ptr %7, i32 0, i32 0
  %9 = load i32, ptr %8, align 4, !tbaa !20
  %10 = call noundef i32 @_ZN5Yosys5RTLIL8IdString13get_referenceEi(i32 noundef %9)
  store i32 %10, ptr %6, align 4, !tbaa !20
  ret void
}

; Function Attrs: mustprogress uwtable
define linkonce_odr noundef i32 @_ZN5Yosys7GetSizeINS_5RTLIL7SigSpecEEEiRKT_(ptr noundef nonnull align 8 dereferenceable(56) %0) #4 comdat {
  %2 = alloca ptr, align 8
  store ptr %0, ptr %2, align 8, !tbaa !202
  %3 = load ptr, ptr %2, align 8, !tbaa !202
  %4 = call noundef i32 @_ZNK5Yosys5RTLIL7SigSpec4sizeEv(ptr noundef nonnull align 8 dereferenceable(56) %3)
  ret i32 %4
}

; Function Attrs: mustprogress uwtable
define internal void @_ZN12_GLOBAL__N_110compare_opEPN5Yosys25AbstractCellEdgesDatabaseEPNS0_5RTLIL4CellE(ptr noundef %0, ptr noundef %1) #4 personality ptr @__gxx_personality_v0 {
  %3 = alloca ptr, align 8
  %4 = alloca ptr, align 8
  %5 = alloca i32, align 4
  %6 = alloca i32, align 4
  %7 = alloca i32, align 4
  %8 = alloca %"struct.Yosys::RTLIL::IdString", align 4
  %9 = alloca %"struct.Yosys::RTLIL::IdString", align 4
  %10 = alloca ptr, align 8
  %11 = alloca i32, align 4
  %12 = alloca i32, align 4
  %13 = alloca %"struct.Yosys::RTLIL::IdString", align 4
  %14 = alloca %"struct.Yosys::RTLIL::IdString", align 4
  store ptr %0, ptr %3, align 8, !tbaa !6
  store ptr %1, ptr %4, align 8, !tbaa !11
  call void @llvm.lifetime.start.p0(i64 4, ptr %5) #3
  %15 = load ptr, ptr %4, align 8, !tbaa !11
  %16 = call noundef nonnull align 8 dereferenceable(56) ptr @_ZNK5Yosys5RTLIL4Cell7getPortERKNS0_8IdStringE(ptr noundef nonnull align 8 dereferenceable(192) %15, ptr noundef nonnull align 4 dereferenceable(4) @_ZN5Yosys5RTLIL2ID1AE)
  %17 = call noundef i32 @_ZN5Yosys7GetSizeINS_5RTLIL7SigSpecEEEiRKT_(ptr noundef nonnull align 8 dereferenceable(56) %16)
  store i32 %17, ptr %5, align 4, !tbaa !25
  call void @llvm.lifetime.start.p0(i64 4, ptr %6) #3
  %18 = load ptr, ptr %4, align 8, !tbaa !11
  %19 = call noundef nonnull align 8 dereferenceable(56) ptr @_ZNK5Yosys5RTLIL4Cell7getPortERKNS0_8IdStringE(ptr noundef nonnull align 8 dereferenceable(192) %18, ptr noundef nonnull align 4 dereferenceable(4) @_ZN5Yosys5RTLIL2ID1BE)
  %20 = call noundef i32 @_ZN5Yosys7GetSizeINS_5RTLIL7SigSpecEEEiRKT_(ptr noundef nonnull align 8 dereferenceable(56) %19)
  store i32 %20, ptr %6, align 4, !tbaa !25
  call void @llvm.lifetime.start.p0(i64 4, ptr %7) #3
  store i32 0, ptr %7, align 4, !tbaa !25
  br label %21

21:                                               ; preds = %35, %2
  %22 = load i32, ptr %7, align 4, !tbaa !25
  %23 = load i32, ptr %5, align 4, !tbaa !25
  %24 = icmp slt i32 %22, %23
  br i1 %24, label %26, label %25

25:                                               ; preds = %21
  call void @llvm.lifetime.end.p0(i64 4, ptr %7) #3
  br label %47

26:                                               ; preds = %21
  %27 = load ptr, ptr %3, align 8, !tbaa !6
  %28 = load ptr, ptr %4, align 8, !tbaa !11
  call void @_ZN5Yosys5RTLIL8IdStringC2ERKS1_(ptr noundef nonnull align 4 dereferenceable(4) %8, ptr noundef nonnull align 4 dereferenceable(4) @_ZN5Yosys5RTLIL2ID1AE)
  %29 = load i32, ptr %7, align 4, !tbaa !25
  invoke void @_ZN5Yosys5RTLIL8IdStringC2ERKS1_(ptr noundef nonnull align 4 dereferenceable(4) %9, ptr noundef nonnull align 4 dereferenceable(4) @_ZN5Yosys5RTLIL2ID1YE)
          to label %30 unwind label %38

30:                                               ; preds = %26
  %31 = load ptr, ptr %27, align 8, !tbaa !26
  %32 = getelementptr inbounds ptr, ptr %31, i64 2
  %33 = load ptr, ptr %32, align 8
  invoke void %33(ptr noundef nonnull align 8 dereferenceable(8) %27, ptr noundef %28, ptr noundef %8, i32 noundef %29, ptr noundef %9, i32 noundef 0, i32 noundef -1)
          to label %34 unwind label %42

34:                                               ; preds = %30
  call void @_ZN5Yosys5RTLIL8IdStringD2Ev(ptr noundef nonnull align 4 dereferenceable(4) %9) #3
  call void @_ZN5Yosys5RTLIL8IdStringD2Ev(ptr noundef nonnull align 4 dereferenceable(4) %8) #3
  br label %35

35:                                               ; preds = %34
  %36 = load i32, ptr %7, align 4, !tbaa !25
  %37 = add nsw i32 %36, 1
  store i32 %37, ptr %7, align 4, !tbaa !25
  br label %21, !llvm.loop !41

38:                                               ; preds = %26
  %39 = landingpad { ptr, i32 }
          cleanup
  %40 = extractvalue { ptr, i32 } %39, 0
  store ptr %40, ptr %10, align 8
  %41 = extractvalue { ptr, i32 } %39, 1
  store i32 %41, ptr %11, align 4
  br label %46

42:                                               ; preds = %30
  %43 = landingpad { ptr, i32 }
          cleanup
  %44 = extractvalue { ptr, i32 } %43, 0
  store ptr %44, ptr %10, align 8
  %45 = extractvalue { ptr, i32 } %43, 1
  store i32 %45, ptr %11, align 4
  call void @_ZN5Yosys5RTLIL8IdStringD2Ev(ptr noundef nonnull align 4 dereferenceable(4) %9) #3
  br label %46

46:                                               ; preds = %42, %38
  call void @_ZN5Yosys5RTLIL8IdStringD2Ev(ptr noundef nonnull align 4 dereferenceable(4) %8) #3
  call void @llvm.lifetime.end.p0(i64 4, ptr %7) #3
  br label %75

47:                                               ; preds = %25
  call void @llvm.lifetime.start.p0(i64 4, ptr %12) #3
  store i32 0, ptr %12, align 4, !tbaa !25
  br label %48

48:                                               ; preds = %62, %47
  %49 = load i32, ptr %12, align 4, !tbaa !25
  %50 = load i32, ptr %6, align 4, !tbaa !25
  %51 = icmp slt i32 %49, %50
  br i1 %51, label %53, label %52

52:                                               ; preds = %48
  call void @llvm.lifetime.end.p0(i64 4, ptr %12) #3
  br label %74

53:                                               ; preds = %48
  %54 = load ptr, ptr %3, align 8, !tbaa !6
  %55 = load ptr, ptr %4, align 8, !tbaa !11
  call void @_ZN5Yosys5RTLIL8IdStringC2ERKS1_(ptr noundef nonnull align 4 dereferenceable(4) %13, ptr noundef nonnull align 4 dereferenceable(4) @_ZN5Yosys5RTLIL2ID1BE)
  %56 = load i32, ptr %12, align 4, !tbaa !25
  invoke void @_ZN5Yosys5RTLIL8IdStringC2ERKS1_(ptr noundef nonnull align 4 dereferenceable(4) %14, ptr noundef nonnull align 4 dereferenceable(4) @_ZN5Yosys5RTLIL2ID1YE)
          to label %57 unwind label %65

57:                                               ; preds = %53
  %58 = load ptr, ptr %54, align 8, !tbaa !26
  %59 = getelementptr inbounds ptr, ptr %58, i64 2
  %60 = load ptr, ptr %59, align 8
  invoke void %60(ptr noundef nonnull align 8 dereferenceable(8) %54, ptr noundef %55, ptr noundef %13, i32 noundef %56, ptr noundef %14, i32 noundef 0, i32 noundef -1)
          to label %61 unwind label %69

61:                                               ; preds = %57
  call void @_ZN5Yosys5RTLIL8IdStringD2Ev(ptr noundef nonnull align 4 dereferenceable(4) %14) #3
  call void @_ZN5Yosys5RTLIL8IdStringD2Ev(ptr noundef nonnull align 4 dereferenceable(4) %13) #3
  br label %62

62:                                               ; preds = %61
  %63 = load i32, ptr %12, align 4, !tbaa !25
  %64 = add nsw i32 %63, 1
  store i32 %64, ptr %12, align 4, !tbaa !25
  br label %48, !llvm.loop !42

65:                                               ; preds = %53
  %66 = landingpad { ptr, i32 }
          cleanup
  %67 = extractvalue { ptr, i32 } %66, 0
  store ptr %67, ptr %10, align 8
  %68 = extractvalue { ptr, i32 } %66, 1
  store i32 %68, ptr %11, align 4
  br label %73

69:                                               ; preds = %57
  %70 = landingpad { ptr, i32 }
          cleanup
  %71 = extractvalue { ptr, i32 } %70, 0
  store ptr %71, ptr %10, align 8
  %72 = extractvalue { ptr, i32 } %70, 1
  store i32 %72, ptr %11, align 4
  call void @_ZN5Yosys5RTLIL8IdStringD2Ev(ptr noundef nonnull align 4 dereferenceable(4) %14) #3
  br label %73

73:                                               ; preds = %69, %65
  call void @_ZN5Yosys5RTLIL8IdStringD2Ev(ptr noundef nonnull align 4 dereferenceable(4) %13) #3
  call void @llvm.lifetime.end.p0(i64 4, ptr %12) #3
  br label %75

74:                                               ; preds = %52
  call void @llvm.lifetime.end.p0(i64 4, ptr %6) #3
  call void @llvm.lifetime.end.p0(i64 4, ptr %5) #3
  ret void

75:                                               ; preds = %73, %46
  call void @llvm.lifetime.end.p0(i64 4, ptr %6) #3
  call void @llvm.lifetime.end.p0(i64 4, ptr %5) #3
  br label %76

76:                                               ; preds = %75
  %77 = load ptr, ptr %10, align 8
  %78 = load i32, ptr %11, align 4
  %79 = insertvalue { ptr, i32 } poison, ptr %77, 0
  %80 = insertvalue { ptr, i32 } %79, i32 %78, 1
  resume { ptr, i32 } %80
}