; Function Attrs: mustprogress uwtable
define internal fastcc void @_ZN12_GLOBAL__N_110compare_opEPN5Yosys25AbstractCellEdgesDatabaseEPNS0_5RTLIL4CellE(ptr noundef nonnull %0, ptr noundef nonnull %1) unnamed_addr #3 personality ptr @__gxx_personality_v0 {
  %3 = alloca %"struct.Yosys::RTLIL::IdString", align 4
  %4 = alloca %"struct.Yosys::RTLIL::IdString", align 4
  %5 = alloca %"struct.Yosys::RTLIL::IdString", align 4
  %6 = alloca %"struct.Yosys::RTLIL::IdString", align 4
  %7 = tail call noundef nonnull align 8 dereferenceable(56) ptr @_ZNK5Yosys5RTLIL4Cell7getPortERKNS0_8IdStringE(ptr noundef nonnull align 8 dereferenceable(192) %1, ptr noundef nonnull align 4 dereferenceable(4) @_ZN5Yosys5RTLIL2ID1AE)
  %8 = load i32, ptr %7, align 8, !tbaa !33
  %9 = tail call noundef nonnull align 8 dereferenceable(56) ptr @_ZNK5Yosys5RTLIL4Cell7getPortERKNS0_8IdStringE(ptr noundef nonnull align 8 dereferenceable(192) %1, ptr noundef nonnull align 4 dereferenceable(4) @_ZN5Yosys5RTLIL2ID1BE)
  %10 = load i32, ptr %9, align 8, !tbaa !33
  %11 = icmp sgt i32 %8, 0
  br i1 %11, label %.lr.ph, label %.preheader

.preheader:                                       ; preds = %_ZN5Yosys5RTLIL8IdStringD2Ev.exit27, %2
  %12 = icmp sgt i32 %10, 0
  br i1 %12, label %.lr.ph38, label %._crit_edge

.lr.ph:                                           ; preds = %2, %_ZN5Yosys5RTLIL8IdStringD2Ev.exit27
  %.01936 = phi i32 [ %62, %_ZN5Yosys5RTLIL8IdStringD2Ev.exit27 ], [ 0, %2 ]
  %13 = load i32, ptr @_ZN5Yosys5RTLIL2ID1AE, align 4, !tbaa !10
  %.not.i.i = icmp eq i32 %13, 0
  br i1 %.not.i.i, label %_ZN5Yosys5RTLIL8IdStringC2ERKS1_.exit, label %14

14:                                               ; preds = %.lr.ph
  %15 = sext i32 %13 to i64
  %16 = load ptr, ptr @_ZN5Yosys5RTLIL8IdString24global_refcount_storage_E, align 8, !tbaa !15
  %17 = getelementptr inbounds nuw i32, ptr %16, i64 %15
  %18 = load i32, ptr %17, align 4, !tbaa !19
  %19 = add nsw i32 %18, 1
  store i32 %19, ptr %17, align 4, !tbaa !19
  br label %_ZN5Yosys5RTLIL8IdStringC2ERKS1_.exit

_ZN5Yosys5RTLIL8IdStringC2ERKS1_.exit:            ; preds = %.lr.ph, %14
  store i32 %13, ptr %3, align 4, !tbaa !10
  %20 = load i32, ptr @_ZN5Yosys5RTLIL2ID1YE, align 4, !tbaa !10
  %.not.i.i24 = icmp eq i32 %20, 0
  br i1 %.not.i.i24, label %27, label %21

21:                                               ; preds = %_ZN5Yosys5RTLIL8IdStringC2ERKS1_.exit
  %22 = sext i32 %20 to i64
  %23 = load ptr, ptr @_ZN5Yosys5RTLIL8IdString24global_refcount_storage_E, align 8, !tbaa !15
  %24 = getelementptr inbounds nuw i32, ptr %23, i64 %22
  %25 = load i32, ptr %24, align 4, !tbaa !19
  %26 = add nsw i32 %25, 1
  store i32 %26, ptr %24, align 4, !tbaa !19
  br label %27

27:                                               ; preds = %21, %_ZN5Yosys5RTLIL8IdStringC2ERKS1_.exit
  store i32 %20, ptr %4, align 4, !tbaa !10
  %28 = load ptr, ptr %0, align 8, !tbaa !45
  %29 = getelementptr inbounds nuw i8, ptr %28, i64 16
  %30 = load ptr, ptr %29, align 8
  invoke void %30(ptr noundef nonnull align 8 dereferenceable(8) %0, ptr noundef nonnull %1, ptr noundef nonnull %3, i32 noundef %.01936, ptr noundef nonnull %4, i32 noundef 0, i32 noundef -1)
          to label %31 unwind label %63

31:                                               ; preds = %27
  %32 = load i32, ptr %4, align 4, !tbaa !10
  %33 = load i8, ptr @_ZN5Yosys5RTLIL8IdString17destruct_guard_okE, align 1, !tbaa !26, !range !28, !noundef !29
  %34 = trunc nuw i8 %33 to i1
  %35 = icmp ne i32 %32, 0
  %or.cond.i.i = and i1 %35, %34
  br i1 %or.cond.i.i, label %36, label %_ZN5Yosys5RTLIL8IdStringD2Ev.exit

36:                                               ; preds = %31
  %37 = sext i32 %32 to i64
  %38 = load ptr, ptr @_ZN5Yosys5RTLIL8IdString24global_refcount_storage_E, align 8, !tbaa !15
  %39 = getelementptr inbounds nuw i32, ptr %38, i64 %37
  %40 = load i32, ptr %39, align 4, !tbaa !19
  %41 = add nsw i32 %40, -1
  store i32 %41, ptr %39, align 4, !tbaa !19
  %42 = icmp sgt i32 %40, 1
  br i1 %42, label %_ZN5Yosys5RTLIL8IdStringD2Ev.exit, label %43

43:                                               ; preds = %36
  invoke void @_ZN5Yosys5RTLIL8IdString14free_referenceEi(i32 noundef %32)
          to label %._ZN5Yosys5RTLIL8IdStringD2Ev.exit_crit_edge unwind label %44

._ZN5Yosys5RTLIL8IdStringD2Ev.exit_crit_edge:     ; preds = %43
  %.pre = load i8, ptr @_ZN5Yosys5RTLIL8IdString17destruct_guard_okE, align 1, !tbaa !26, !range !28
  br label %_ZN5Yosys5RTLIL8IdStringD2Ev.exit

44:                                               ; preds = %43
  %45 = landingpad { ptr, i32 }
          catch ptr null
  %46 = extractvalue { ptr, i32 } %45, 0
  call void @__clang_call_terminate(ptr %46) #24
  unreachable

_ZN5Yosys5RTLIL8IdStringD2Ev.exit:                ; preds = %._ZN5Yosys5RTLIL8IdStringD2Ev.exit_crit_edge, %31, %36
  %47 = phi i8 [ %.pre, %._ZN5Yosys5RTLIL8IdStringD2Ev.exit_crit_edge ], [ %33, %31 ], [ 1, %36 ]
  %48 = load i32, ptr %3, align 4, !tbaa !10
  %49 = trunc nuw i8 %47 to i1
  %50 = icmp ne i32 %48, 0
  %or.cond.i.i26 = and i1 %50, %49
  br i1 %or.cond.i.i26, label %51, label %_ZN5Yosys5RTLIL8IdStringD2Ev.exit27

51:                                               ; preds = %_ZN5Yosys5RTLIL8IdStringD2Ev.exit
  %52 = sext i32 %48 to i64
  %53 = load ptr, ptr @_ZN5Yosys5RTLIL8IdString24global_refcount_storage_E, align 8, !tbaa !15
  %54 = getelementptr inbounds nuw i32, ptr %53, i64 %52
  %55 = load i32, ptr %54, align 4, !tbaa !19
  %56 = add nsw i32 %55, -1
  store i32 %56, ptr %54, align 4, !tbaa !19
  %57 = icmp sgt i32 %55, 1
  br i1 %57, label %_ZN5Yosys5RTLIL8IdStringD2Ev.exit27, label %58

58:                                               ; preds = %51
  invoke void @_ZN5Yosys5RTLIL8IdString14free_referenceEi(i32 noundef %48)
          to label %_ZN5Yosys5RTLIL8IdStringD2Ev.exit27 unwind label %59

59:                                               ; preds = %58
  %60 = landingpad { ptr, i32 }
          catch ptr null
  %61 = extractvalue { ptr, i32 } %60, 0
  call void @__clang_call_terminate(ptr %61) #24
  unreachable

_ZN5Yosys5RTLIL8IdStringD2Ev.exit27:              ; preds = %_ZN5Yosys5RTLIL8IdStringD2Ev.exit, %51, %58
  %62 = add nuw nsw i32 %.01936, 1
  %exitcond.not = icmp eq i32 %62, %8
  br i1 %exitcond.not, label %.preheader, label %.lr.ph, !llvm.loop !178

63:                                               ; preds = %27
  %64 = landingpad { ptr, i32 }
          cleanup
  br label %117

._crit_edge:                                      ; preds = %_ZN5Yosys5RTLIL8IdStringD2Ev.exit35, %.preheader
  ret void

.lr.ph38:                                         ; preds = %.preheader, %_ZN5Yosys5RTLIL8IdStringD2Ev.exit35
  %.037 = phi i32 [ %114, %_ZN5Yosys5RTLIL8IdStringD2Ev.exit35 ], [ 0, %.preheader ]
  %65 = load i32, ptr @_ZN5Yosys5RTLIL2ID1BE, align 4, !tbaa !10
  %.not.i.i28 = icmp eq i32 %65, 0
  br i1 %.not.i.i28, label %_ZN5Yosys5RTLIL8IdStringC2ERKS1_.exit29, label %66

66:                                               ; preds = %.lr.ph38
  %67 = sext i32 %65 to i64
  %68 = load ptr, ptr @_ZN5Yosys5RTLIL8IdString24global_refcount_storage_E, align 8, !tbaa !15
  %69 = getelementptr inbounds nuw i32, ptr %68, i64 %67
  %70 = load i32, ptr %69, align 4, !tbaa !19
  %71 = add nsw i32 %70, 1
  store i32 %71, ptr %69, align 4, !tbaa !19
  br label %_ZN5Yosys5RTLIL8IdStringC2ERKS1_.exit29

_ZN5Yosys5RTLIL8IdStringC2ERKS1_.exit29:          ; preds = %.lr.ph38, %66
  store i32 %65, ptr %5, align 4, !tbaa !10
  %72 = load i32, ptr @_ZN5Yosys5RTLIL2ID1YE, align 4, !tbaa !10
  %.not.i.i30 = icmp eq i32 %72, 0
  br i1 %.not.i.i30, label %79, label %73

73:                                               ; preds = %_ZN5Yosys5RTLIL8IdStringC2ERKS1_.exit29
  %74 = sext i32 %72 to i64
  %75 = load ptr, ptr @_ZN5Yosys5RTLIL8IdString24global_refcount_storage_E, align 8, !tbaa !15
  %76 = getelementptr inbounds nuw i32, ptr %75, i64 %74
  %77 = load i32, ptr %76, align 4, !tbaa !19
  %78 = add nsw i32 %77, 1
  store i32 %78, ptr %76, align 4, !tbaa !19
  br label %79

79:                                               ; preds = %73, %_ZN5Yosys5RTLIL8IdStringC2ERKS1_.exit29
  store i32 %72, ptr %6, align 4, !tbaa !10
  %80 = load ptr, ptr %0, align 8, !tbaa !45
  %81 = getelementptr inbounds nuw i8, ptr %80, i64 16
  %82 = load ptr, ptr %81, align 8
  invoke void %82(ptr noundef nonnull align 8 dereferenceable(8) %0, ptr noundef nonnull %1, ptr noundef nonnull %5, i32 noundef %.037, ptr noundef nonnull %6, i32 noundef 0, i32 noundef -1)
          to label %83 unwind label %115

83:                                               ; preds = %79
  %84 = load i32, ptr %6, align 4, !tbaa !10
  %85 = load i8, ptr @_ZN5Yosys5RTLIL8IdString17destruct_guard_okE, align 1, !tbaa !26, !range !28, !noundef !29
  %86 = trunc nuw i8 %85 to i1
  %87 = icmp ne i32 %84, 0
  %or.cond.i.i32 = and i1 %87, %86
  br i1 %or.cond.i.i32, label %88, label %_ZN5Yosys5RTLIL8IdStringD2Ev.exit33

88:                                               ; preds = %83
  %89 = sext i32 %84 to i64
  %90 = load ptr, ptr @_ZN5Yosys5RTLIL8IdString24global_refcount_storage_E, align 8, !tbaa !15
  %91 = getelementptr inbounds nuw i32, ptr %90, i64 %89
  %92 = load i32, ptr %91, align 4, !tbaa !19
  %93 = add nsw i32 %92, -1
  store i32 %93, ptr %91, align 4, !tbaa !19
  %94 = icmp sgt i32 %92, 1
  br i1 %94, label %_ZN5Yosys5RTLIL8IdStringD2Ev.exit33, label %95

95:                                               ; preds = %88
  invoke void @_ZN5Yosys5RTLIL8IdString14free_referenceEi(i32 noundef %84)
          to label %._ZN5Yosys5RTLIL8IdStringD2Ev.exit33_crit_edge unwind label %96

._ZN5Yosys5RTLIL8IdStringD2Ev.exit33_crit_edge:   ; preds = %95
  %.pre40 = load i8, ptr @_ZN5Yosys5RTLIL8IdString17destruct_guard_okE, align 1, !tbaa !26, !range !28
  br label %_ZN5Yosys5RTLIL8IdStringD2Ev.exit33

96:                                               ; preds = %95
  %97 = landingpad { ptr, i32 }
          catch ptr null
  %98 = extractvalue { ptr, i32 } %97, 0
  call void @__clang_call_terminate(ptr %98) #24
  unreachable

_ZN5Yosys5RTLIL8IdStringD2Ev.exit33:              ; preds = %._ZN5Yosys5RTLIL8IdStringD2Ev.exit33_crit_edge, %83, %88
  %99 = phi i8 [ %.pre40, %._ZN5Yosys5RTLIL8IdStringD2Ev.exit33_crit_edge ], [ %85, %83 ], [ 1, %88 ]
  %100 = load i32, ptr %5, align 4, !tbaa !10
  %101 = trunc nuw i8 %99 to i1
  %102 = icmp ne i32 %100, 0
  %or.cond.i.i34 = and i1 %102, %101
  br i1 %or.cond.i.i34, label %103, label %_ZN5Yosys5RTLIL8IdStringD2Ev.exit35

103:                                              ; preds = %_ZN5Yosys5RTLIL8IdStringD2Ev.exit33
  %104 = sext i32 %100 to i64
  %105 = load ptr, ptr @_ZN5Yosys5RTLIL8IdString24global_refcount_storage_E, align 8, !tbaa !15
  %106 = getelementptr inbounds nuw i32, ptr %105, i64 %104
  %107 = load i32, ptr %106, align 4, !tbaa !19
  %108 = add nsw i32 %107, -1
  store i32 %108, ptr %106, align 4, !tbaa !19
  %109 = icmp sgt i32 %107, 1
  br i1 %109, label %_ZN5Yosys5RTLIL8IdStringD2Ev.exit35, label %110

110:                                              ; preds = %103
  invoke void @_ZN5Yosys5RTLIL8IdString14free_referenceEi(i32 noundef %100)
          to label %_ZN5Yosys5RTLIL8IdStringD2Ev.exit35 unwind label %111

111:                                              ; preds = %110
  %112 = landingpad { ptr, i32 }
          catch ptr null
  %113 = extractvalue { ptr, i32 } %112, 0
  call void @__clang_call_terminate(ptr %113) #24
  unreachable

_ZN5Yosys5RTLIL8IdStringD2Ev.exit35:              ; preds = %_ZN5Yosys5RTLIL8IdStringD2Ev.exit33, %103, %110
  %114 = add nuw nsw i32 %.037, 1
  %exitcond39.not = icmp eq i32 %114, %10
  br i1 %exitcond39.not, label %._crit_edge, label %.lr.ph38, !llvm.loop !179

115:                                              ; preds = %79
  %116 = landingpad { ptr, i32 }
          cleanup
  br label %117

117:                                              ; preds = %115, %63
  %.sink41 = phi ptr [ %6, %115 ], [ %4, %63 ]
  %.sink = phi ptr [ %5, %115 ], [ %3, %63 ]
  %.pn21.pn = phi { ptr, i32 } [ %116, %115 ], [ %64, %63 ]
  call void @_ZN5Yosys5RTLIL8IdStringD2Ev(ptr noundef nonnull align 4 dereferenceable(4) %.sink41) #23
  call void @_ZN5Yosys5RTLIL8IdStringD2Ev(ptr noundef nonnull align 4 dereferenceable(4) %.sink) #23
  resume { ptr, i32 } %.pn21.pn
}